target datalayout = "e-m:e-p270:32:32-p271:32:32-p272:64:64-i64:64-i128:128-f80:128-n8:16:32:64-S128"
target triple = "x86_64-pc-linux-gnu"

%struct.AVCodecContext = type { ptr, i32, i32, ptr, i32, i32, ptr, ptr, ptr, i64, i32, i32, ptr, i32, %struct.AVRational, %struct.AVRational, %struct.AVRational, i32, i32, i32, i32, i32, %struct.AVRational, i32, i32, i32, i32, i32, i32, i32, i32, i32, i32, i32, ptr, ptr, i32, float, float, float, float, float, float, float, float, float, i32, i32, i32, i32, i32, i32, i32, i32, i32, i32, i32, i32, ptr, ptr, ptr, i32, i32, i32, i32, i32, i32, i32, i32, i32, i32, %struct.AVChannelLayout, i32, i32, i32, i32, i32, i32, i32, i32, ptr, i32, i32, i32, float, float, i32, i32, i32, i32, i32, ptr, i64, i64, float, float, i32, i32, ptr, ptr, i32, i32, i32, i32, i32, ptr, ptr, ptr, ptr, i32, i32, [8 x i64], i32, i32, i32, i32, i32, i32, i32, ptr, ptr, i32, i32, i32, i32, i32, i32, i32, i32, i32, i32, ptr, ptr, i32, i32, ptr, ptr, ptr, ptr, i32, i32, i64, i32, i32, i64, ptr, i64, ptr, i32, ptr, i32 }
%struct.AVRational = type { i32, i32 }
%struct.AVChannelLayout = type { i32, i32, %union.anon, ptr }
%union.anon = type { i64 }
%struct.VC1Context = type { %struct.MpegEncContext, %struct.IntraX8Context, %struct.H264ChromaContext, %struct.VC1DSPContext, i32, i32, i32, i32, i32, i32, i32, i32, i32, i32, i32, i32, i32, i32, i32, i32, i32, i32, i32, i32, i32, i32, i32, i32, i32, i32, i32, i32, i32, i32, i32, i32, i32, i32, i32, i32, i8, i8, i32, i32, i32, i32, i8, i8, [4 x [64 x i8]], i32, i32, ptr, ptr, i8, i8, i8, i8, i32, i32, i32, i32, i32, i32, i8, ptr, ptr, i32, i32, i32, i32, i32, ptr, [3 x ptr], i8, i8, i16, i8, i8, i32, i8, i8, ptr, i32, i32, ptr, ptr, ptr, i32, i32, i32, i32, [2 x [256 x i8]], [2 x [256 x i8]], [2 x [256 x i8]], [2 x [256 x i8]], [2 x [256 x i8]], [2 x [256 x i8]], ptr, ptr, i32, ptr, i32, i32, i32, i32, i32, i32, i8, i8, i32, i8, i8, i8, i8, i8, i8, i8, i32, i8, i8, ptr, i32, ptr, i32, i8, i8, i8, i8, i8, i8, i32, i32, i8, i8, ptr, ptr, ptr, ptr, i8, i8, ptr, i32, [64 x i8], ptr, ptr, ptr, [2 x ptr], ptr, [2 x ptr], i32, i32, i32, i32, i32, i32, i32, i32, [2 x i32], i32, i32, i32, i32, i32, i32, i32, i32, i32, i32, i32, i32, i32, i32, ptr, i32, i32, i32, i32, [2 x [2 x ptr]], i32, i32, i32, ptr, i32, i32, i32, i32, i32, ptr, ptr, ptr, ptr, ptr, ptr, i8, i8, i8, i32, i32, i32 }
%struct.MpegEncContext = type { ptr, i32, i32, i32, [12 x i32], i32, %struct.ScanTable, %struct.ScanTable, [64 x i8], [64 x i8], ptr, ptr, i32, i32, i32, i32, i32, i32, i32, i32, i32, i32, i32, i32, i32, i32, i32, i32, i32, i32, i32, i32, i64, i64, ptr, %struct.BufferPoolContext, i32, i32, %union.anon.0, i32, %struct.MPVWorkPicture, %struct.MPVWorkPicture, %struct.MPVWorkPicture, i32, [3 x i32], ptr, [3 x ptr], ptr, ptr, ptr, ptr, ptr, ptr, [3 x ptr], i32, ptr, ptr, ptr, ptr, %struct.ScratchpadContext, i32, i32, i32, i32, i32, i32, %struct.BlockDSPContext, %struct.H264ChromaContext, %struct.HpelDSPContext, %struct.IDCTDSPContext, %struct.QpelDSPContext, %struct.VideoDSPContext, %struct.H263DSPContext, ptr, [2 x [2 x ptr]], i32, i32, [2 x [4 x [2 x i32]]], [2 x [2 x i32]], [2 x [2 x [2 x i32]]], [2 x [64 x i16]], i32, i32, i32, i32, i32, [6 x i32], [6 x i32], [3 x ptr], ptr, [64 x i16], [64 x i16], [64 x i16], [64 x i16], i32, i32, %struct.GetBitContext, i32, i32, i32, i32, i32, i32, i32, i32, i32, i32, i32, i32, i32, i32, i32, i64, i64, i16, i16, i16, i16, i32, i32, i32, i32, i32, i32, i32, i32, i32, [3 x i32], i32, i32, i32, i32, i32, i32, %struct.GetBitContext, i32, [2 x [2 x i32]], i32, i32, i32, i32, i32, i32, i32, i32, i32, i32, i32, i32, i32, i32, [2 x i32], i32, i32, ptr, ptr, ptr, ptr, ptr, i32, i32, %struct.ERContext }
%struct.ScanTable = type { ptr, [64 x i8], [64 x i8] }
%struct.BufferPoolContext = type { ptr, ptr, ptr, ptr, ptr, i32, i32, i32 }
%union.anon.0 = type { [32 x ptr] }
%struct.MPVWorkPicture = type { [3 x ptr], [3 x i64], ptr, ptr, [2 x ptr], ptr, ptr, [2 x ptr], i32 }
%struct.ScratchpadContext = type { ptr, ptr, %union.anon.1, i32 }
%union.anon.1 = type { ptr }
%struct.BlockDSPContext = type { ptr, ptr, [2 x ptr] }
%struct.HpelDSPContext = type { [4 x [4 x ptr]], [4 x [4 x ptr]], [4 x [4 x ptr]], [4 x ptr] }
%struct.IDCTDSPContext = type { ptr, ptr, ptr, ptr, ptr, ptr, [64 x i8], i32, i32 }
%struct.QpelDSPContext = type { [2 x [16 x ptr]], [2 x [16 x ptr]], [2 x [16 x ptr]] }
%struct.VideoDSPContext = type { ptr, ptr }
%struct.H263DSPContext = type { ptr, ptr }
%struct.GetBitContext = type { ptr, ptr, i32, i32, i32 }
%struct.ERContext = type { ptr, ptr, i32, ptr, i32, i32, i32, i64, i64, i32, i32, ptr, ptr, [3 x ptr], ptr, ptr, [2 x [4 x [2 x i32]]], %struct.ERPicture, %struct.ERPicture, %struct.ERPicture, [2 x ptr], [2 x ptr], i16, i16, i32, i32, ptr, ptr }
%struct.ERPicture = type { ptr, ptr, ptr, [2 x ptr], [2 x ptr], ptr, i32 }
%struct.IntraX8Context = type { [4 x ptr], ptr, [3 x ptr], i32, ptr, [3 x [64 x i8]], %struct.WMV2DSPContext, [64 x i8], ptr, ptr, %struct.IntraX8DSPContext, %struct.BlockDSPContext, i32, i32, i32, i32, ptr, ptr, i32, i32, i32, [3 x ptr], [42 x i8], i32, i32, i32, i32, i32, i32, i32, i32, i32, i32, i32 }
%struct.WMV2DSPContext = type { ptr, ptr, [8 x ptr], i32 }
%struct.IntraX8DSPContext = type { ptr, ptr, [12 x ptr], ptr }
%struct.H264ChromaContext = type { [4 x ptr], [4 x ptr] }
%struct.VC1DSPContext = type { ptr, ptr, ptr, ptr, ptr, ptr, ptr, ptr, ptr, ptr, ptr, ptr, ptr, ptr, ptr, ptr, ptr, ptr, [2 x [16 x ptr]], [2 x [16 x ptr]], [3 x ptr], [3 x ptr], ptr, ptr, ptr, ptr, ptr, ptr, ptr }
%struct.MPVPicture = type { ptr, ptr, ptr, [2 x ptr], [2 x ptr], ptr, ptr, ptr, [2 x ptr], ptr, i32, i32, i32, i32, i32, i32, i32, i32, i32, i32, %struct.ThreadProgress }
%struct.ThreadProgress = type { i32, i32, %union.pthread_mutex_t, %union.pthread_cond_t }
%union.pthread_mutex_t = type { %struct.__pthread_mutex_s }
%struct.__pthread_mutex_s = type { i32, i32, i32, i32, i32, i16, i16, %struct.__pthread_internal_list }
%struct.__pthread_internal_list = type { ptr, ptr }
%union.pthread_cond_t = type { %struct.__pthread_cond_s }
%struct.__pthread_cond_s = type { %union.__atomic_wide_counter, %union.__atomic_wide_counter, [2 x i32], [2 x i32], i32, i32, [2 x i32] }
%union.__atomic_wide_counter = type { i64 }
%struct._VASliceParameterBufferVC1 = type { i32, i32, i32, i32, i32, [4 x i32] }

; Function Attrs: inlinehint nounwind uwtable
define internal i32 @get_bits_count(ptr noundef %0) #3 {
  %2 = alloca ptr, align 8
  store ptr %0, ptr %2, align 8, !tbaa !207
  %3 = load ptr, ptr %2, align 8, !tbaa !207
  %4 = getelementptr inbounds nuw %struct.GetBitContext, ptr %3, i32 0, i32 2
  %5 = load i32, ptr %4, align 8, !tbaa !208
  ret i32 %5
}

; Function Attrs: alwaysinline nounwind willreturn memory(none) uwtable
define internal i32 @av_bswap32(i32 noundef %0) #6 {
  %2 = alloca i32, align 4
  store i32 %0, ptr %2, align 4, !tbaa !13
  %3 = load i32, ptr %2, align 4, !tbaa !13
  %4 = shl i32 %3, 8
  %5 = and i32 %4, 65280
  %6 = load i32, ptr %2, align 4, !tbaa !13
  %7 = lshr i32 %6, 8
  %8 = and i32 %7, 255
  %9 = or i32 %5, %8
  %10 = shl i32 %9, 16
  %11 = load i32, ptr %2, align 4, !tbaa !13
  %12 = lshr i32 %11, 16
  %13 = shl i32 %12, 8
  %14 = and i32 %13, 65280
  %15 = load i32, ptr %2, align 4, !tbaa !13
  %16 = lshr i32 %15, 16
  %17 = lshr i32 %16, 8
  %18 = and i32 %17, 255
  %19 = or i32 %14, %18
  %20 = or i32 %10, %19
  ret i32 %20
}

; Function Attrs: nounwind uwtable
define internal i32 @vaapi_vc1_decode_slice(ptr noundef %0, ptr noundef %1, i32 noundef %2) #0 {
  %4 = alloca i32, align 4
  %5 = alloca ptr, align 8
  %6 = alloca ptr, align 8
  %7 = alloca i32, align 4
  %8 = alloca ptr, align 8
  %9 = alloca ptr, align 8
  %10 = alloca ptr, align 8
  %11 = alloca %struct._VASliceParameterBufferVC1, align 4
  %12 = alloca i32, align 4
  %13 = alloca i32, align 4
  %14 = alloca %struct._VASliceParameterBufferVC1, align 4
  %15 = alloca i32, align 4
  store ptr %0, ptr %5, align 8, !tbaa !4
  store ptr %1, ptr %6, align 8, !tbaa !11
  store i32 %2, ptr %7, align 4, !tbaa !13
  call void @llvm.lifetime.start.p0(i64 8, ptr %8) #7
  %16 = load ptr, ptr %5, align 8, !tbaa !4
  %17 = getelementptr inbounds nuw %struct.AVCodecContext, ptr %16, i32 0, i32 6
  %18 = load ptr, ptr %17, align 8, !tbaa !15
  store ptr %18, ptr %8, align 8, !tbaa !32
  call void @llvm.lifetime.start.p0(i64 8, ptr %9) #7
  %19 = load ptr, ptr %8, align 8, !tbaa !32
  %20 = getelementptr inbounds nuw %struct.VC1Context, ptr %19, i32 0, i32 0
  store ptr %20, ptr %9, align 8, !tbaa !34
  call void @llvm.lifetime.start.p0(i64 8, ptr %10) #7
  %21 = load ptr, ptr %9, align 8, !tbaa !34
  %22 = getelementptr inbounds nuw %struct.MpegEncContext, ptr %21, i32 0, i32 42
  %23 = getelementptr inbounds nuw %struct.MPVWorkPicture, ptr %22, i32 0, i32 2
  %24 = load ptr, ptr %23, align 8, !tbaa !36
  %25 = getelementptr inbounds nuw %struct.MPVPicture, ptr %24, i32 0, i32 9
  %26 = load ptr, ptr %25, align 8, !tbaa !58
  store ptr %26, ptr %10, align 8, !tbaa !61
  call void @llvm.lifetime.start.p0(i64 36, ptr %11) #7
  call void @llvm.lifetime.start.p0(i64 4, ptr %12) #7
  call void @llvm.lifetime.start.p0(i64 4, ptr %13) #7
  %27 = load ptr, ptr %5, align 8, !tbaa !4
  %28 = getelementptr inbounds nuw %struct.AVCodecContext, ptr %27, i32 0, i32 4
  %29 = load i32, ptr %28, align 8, !tbaa !185
  %30 = icmp eq i32 %29, 70
  br i1 %30, label %31, label %42

31:                                               ; preds = %3
  %32 = load ptr, ptr %6, align 8, !tbaa !11
  %33 = load i32, ptr %32, align 1, !tbaa !165
  %34 = call i32 @av_bswap32(i32 noundef %33) #8
  %35 = and i32 %34, -256
  %36 = icmp eq i32 %35, 256
  br i1 %36, label %37, label %42

37:                                               ; preds = %31
  %38 = load ptr, ptr %6, align 8, !tbaa !11
  %39 = getelementptr inbounds i8, ptr %38, i64 4
  store ptr %39, ptr %6, align 8, !tbaa !11
  %40 = load i32, ptr %7, align 4, !tbaa !13
  %41 = sub i32 %40, 4
  store i32 %41, ptr %7, align 4, !tbaa !13
  br label %42

42:                                               ; preds = %37, %31, %3
  %43 = load ptr, ptr %8, align 8, !tbaa !32
  %44 = getelementptr inbounds nuw %struct.VC1Context, ptr %43, i32 0, i32 109
  %45 = load i32, ptr %44, align 4, !tbaa !107
  %46 = icmp eq i32 %45, 2
  br i1 %46, label %47, label %53

47:                                               ; preds = %42
  %48 = load ptr, ptr %5, align 8, !tbaa !4
  %49 = getelementptr inbounds nuw %struct.AVCodecContext, ptr %48, i32 0, i32 21
  %50 = load i32, ptr %49, align 4, !tbaa !91
  %51 = add nsw i32 %50, 31
  %52 = ashr i32 %51, 5
  store i32 %52, ptr %12, align 4, !tbaa !13
  br label %59

53:                                               ; preds = %42
  %54 = load ptr, ptr %5, align 8, !tbaa !4
  %55 = getelementptr inbounds nuw %struct.AVCodecContext, ptr %54, i32 0, i32 21
  %56 = load i32, ptr %55, align 4, !tbaa !91
  %57 = add nsw i32 %56, 15
  %58 = ashr i32 %57, 4
  store i32 %58, ptr %12, align 4, !tbaa !13
  br label %59

59:                                               ; preds = %53, %47
  %60 = getelementptr inbounds nuw %struct._VASliceParameterBufferVC1, ptr %14, i32 0, i32 0
  %61 = load i32, ptr %7, align 4, !tbaa !13
  store i32 %61, ptr %60, align 4, !tbaa !186
  %62 = getelementptr inbounds nuw %struct._VASliceParameterBufferVC1, ptr %14, i32 0, i32 1
  store i32 0, ptr %62, align 4, !tbaa !188
  %63 = getelementptr inbounds nuw %struct._VASliceParameterBufferVC1, ptr %14, i32 0, i32 2
  store i32 0, ptr %63, align 4, !tbaa !189
  %64 = getelementptr inbounds nuw %struct._VASliceParameterBufferVC1, ptr %14, i32 0, i32 3
  %65 = load ptr, ptr %9, align 8, !tbaa !34
  %66 = getelementptr inbounds nuw %struct.MpegEncContext, ptr %65, i32 0, i32 134
  %67 = call i32 @get_bits_count(ptr noundef %66)
  store i32 %67, ptr %64, align 4, !tbaa !190
  %68 = getelementptr inbounds nuw %struct._VASliceParameterBufferVC1, ptr %14, i32 0, i32 4
  %69 = load ptr, ptr %9, align 8, !tbaa !34
  %70 = getelementptr inbounds nuw %struct.MpegEncContext, ptr %69, i32 0, i32 83
  %71 = load i32, ptr %70, align 8, !tbaa !191
  %72 = load i32, ptr %12, align 4, !tbaa !13
  %73 = srem i32 %71, %72
  store i32 %73, ptr %68, align 4, !tbaa !192
  %74 = getelementptr inbounds nuw %struct._VASliceParameterBufferVC1, ptr %14, i32 0, i32 5
  call void @llvm.memset.p0.i64(ptr align 4 %74, i8 0, i64 16, i1 false)
  call void @llvm.memcpy.p0.p0.i64(ptr align 4 %11, ptr align 4 %14, i64 36, i1 false), !tbaa.struct !193
  %75 = load ptr, ptr %5, align 8, !tbaa !4
  %76 = load ptr, ptr %10, align 8, !tbaa !61
  %77 = load ptr, ptr %6, align 8, !tbaa !11
  %78 = load i32, ptr %7, align 4, !tbaa !13
  %79 = zext i32 %78 to i64
  %80 = call i32 @ff_vaapi_decode_make_slice_buffer(ptr noundef %75, ptr noundef %76, ptr noundef %11, i32 noundef 1, i64 noundef 36, ptr noundef %77, i64 noundef %79)
  store i32 %80, ptr %13, align 4, !tbaa !13
  %81 = load i32, ptr %13, align 4, !tbaa !13
  %82 = icmp slt i32 %81, 0
  br i1 %82, label %83, label %88

83:                                               ; preds = %59
  %84 = load ptr, ptr %5, align 8, !tbaa !4
  %85 = load ptr, ptr %10, align 8, !tbaa !61
  %86 = call i32 @ff_vaapi_decode_cancel(ptr noundef %84, ptr noundef %85)
  %87 = load i32, ptr %13, align 4, !tbaa !13
  store i32 %87, ptr %4, align 4
  store i32 1, ptr %15, align 4
  br label %89

88:                                               ; preds = %59
  store i32 0, ptr %4, align 4
  store i32 1, ptr %15, align 4
  br label %89

89:                                               ; preds = %88, %83
  call void @llvm.lifetime.end.p0(i64 4, ptr %13) #7
  call void @llvm.lifetime.end.p0(i64 4, ptr %12) #7
  call void @llvm.lifetime.end.p0(i64 36, ptr %11) #7
  call void @llvm.lifetime.end.p0(i64 8, ptr %10) #7
  call void @llvm.lifetime.end.p0(i64 8, ptr %9) #7
  call void @llvm.lifetime.end.p0(i64 8, ptr %8) #7
  %90 = load i32, ptr %4, align 4
  ret i32 %90
}