; Function Attrs: nounwind uwtable
define internal range(i32 -2147483648, 1) i32 @vaapi_vc1_decode_slice(ptr noundef %0, ptr noundef %1, i32 noundef %2) #0 {
  %4 = alloca %struct._VASliceParameterBufferVC1, align 4
  %5 = getelementptr inbounds nuw i8, ptr %0, i64 32
  %6 = load ptr, ptr %5, align 8, !tbaa !4
  %7 = getelementptr inbounds nuw i8, ptr %6, i64 1208
  %8 = load ptr, ptr %7, align 8, !tbaa !27
  %9 = getelementptr inbounds nuw i8, ptr %8, i64 96
  %10 = load ptr, ptr %9, align 8, !tbaa !50
  call void @llvm.lifetime.start.p0(i64 36, ptr nonnull %4) #5
  %11 = getelementptr inbounds nuw i8, ptr %0, i64 24
  %12 = load i32, ptr %11, align 8, !tbaa !162
  %13 = icmp eq i32 %12, 70
  br i1 %13, label %14, label %21

14:                                               ; preds = %3
  %15 = load i32, ptr %1, align 1, !tbaa !103
  %16 = and i32 %15, 16777215
  %17 = icmp eq i32 %16, 65536
  br i1 %17, label %18, label %21

18:                                               ; preds = %14
  %19 = getelementptr inbounds nuw i8, ptr %1, i64 4
  %20 = add i32 %2, -4
  br label %21

21:                                               ; preds = %18, %14, %3
  %.023 = phi i32 [ %20, %18 ], [ %2, %14 ], [ %2, %3 ]
  %.022 = phi ptr [ %19, %18 ], [ %1, %14 ], [ %1, %3 ]
  %22 = getelementptr inbounds nuw i8, ptr %6, i64 10140
  %23 = load i32, ptr %22, align 4, !tbaa !89
  %24 = icmp eq i32 %23, 2
  %25 = getelementptr inbounds nuw i8, ptr %0, i64 124
  %26 = load i32, ptr %25, align 4, !tbaa !77
  %. = select i1 %24, i32 31, i32 15
  %.28 = select i1 %24, i32 5, i32 4
  %27 = add nsw i32 %26, %.
  %28 = ashr i32 %27, %.28
  %29 = getelementptr i8, ptr %6, i64 4176
  %.val = load i32, ptr %29, align 8, !tbaa !163
  %30 = getelementptr inbounds nuw i8, ptr %6, i64 3352
  %31 = load i32, ptr %30, align 8, !tbaa !164
  %32 = srem i32 %31, %28
  %.sroa.6.0..sroa_idx = getelementptr inbounds nuw i8, ptr %4, i64 20
  call void @llvm.memset.p0.i64(ptr noundef nonnull align 4 dereferenceable(16) %.sroa.6.0..sroa_idx, i8 0, i64 16, i1 false)
  store i32 %.023, ptr %4, align 4, !tbaa !90
  %.sroa.2.0..sroa_idx = getelementptr inbounds nuw i8, ptr %4, i64 4
  store i32 0, ptr %.sroa.2.0..sroa_idx, align 4, !tbaa !90
  %.sroa.3.0..sroa_idx = getelementptr inbounds nuw i8, ptr %4, i64 8
  store i32 0, ptr %.sroa.3.0..sroa_idx, align 4, !tbaa !90
  %.sroa.4.0..sroa_idx = getelementptr inbounds nuw i8, ptr %4, i64 12
  store i32 %.val, ptr %.sroa.4.0..sroa_idx, align 4, !tbaa !90
  %.sroa.5.0..sroa_idx = getelementptr inbounds nuw i8, ptr %4, i64 16
  store i32 %32, ptr %.sroa.5.0..sroa_idx, align 4, !tbaa !90
  %33 = zext i32 %.023 to i64
  %34 = call i32 @ff_vaapi_decode_make_slice_buffer(ptr noundef nonnull %0, ptr noundef %10, ptr noundef nonnull %4, i32 noundef 1, i64 noundef 36, ptr noundef %.022, i64 noundef %33) #5
  %35 = icmp slt i32 %34, 0
  br i1 %35, label %36, label %38

36:                                               ; preds = %21
  %37 = call i32 @ff_vaapi_decode_cancel(ptr noundef nonnull %0, ptr noundef %10) #5
  br label %38

38:                                               ; preds = %21, %36
  %.0 = phi i32 [ %34, %36 ], [ 0, %21 ]
  call void @llvm.lifetime.end.p0(i64 36, ptr nonnull %4) #5
  ret i32 %.0
}